target datalayout = "e-m:e-p270:32:32-p271:32:32-p272:64:64-i64:64-i128:128-f80:128-n8:16:32:64-S128"
target triple = "x86_64-pc-linux-gnu"

%struct.AVCodecContext = type { ptr, i32, i32, ptr, i32, i32, ptr, ptr, ptr, i64, i32, i32, ptr, i32, %struct.AVRational, %struct.AVRational, %struct.AVRational, i32, i32, i32, i32, i32, %struct.AVRational, i32, i32, i32, i32, i32, i32, i32, i32, i32, i32, i32, ptr, ptr, i32, float, float, float, float, float, float, float, float, float, i32, i32, i32, i32, i32, i32, i32, i32, i32, i32, i32, i32, ptr, ptr, ptr, i32, i32, i32, i32, i32, i32, i32, i32, i32, i32, %struct.AVChannelLayout, i32, i32, i32, i32, i32, i32, i32, i32, ptr, i32, i32, i32, float, float, i32, i32, i32, i32, i32, ptr, i64, i64, float, float, i32, i32, ptr, ptr, i32, i32, i32, i32, i32, ptr, ptr, ptr, ptr, i32, i32, [8 x i64], i32, i32, i32, i32, i32, i32, i32, ptr, ptr, i32, i32, i32, i32, i32, i32, i32, i32, i32, i32, ptr, ptr, i32, i32, ptr, ptr, ptr, ptr, i32, i32, i64, i32, i32, i64, ptr, i64, ptr, i32, ptr, i32 }
%struct.AVRational = type { i32, i32 }
%struct.AVChannelLayout = type { i32, i32, %union.anon, ptr }
%union.anon = type { i64 }

; Function Attrs: nounwind uwtable
define void @ff_mjpeg_init_hvsample(ptr noundef %0, ptr noundef %1, ptr noundef %2) #0 {
  %4 = alloca ptr, align 8
  %5 = alloca ptr, align 8
  %6 = alloca ptr, align 8
  %7 = alloca i32, align 4
  %8 = alloca i32, align 4
  store ptr %0, ptr %4, align 8, !tbaa !4
  store ptr %1, ptr %5, align 8, !tbaa !24
  store ptr %2, ptr %6, align 8, !tbaa !24
  %9 = load ptr, ptr %4, align 8, !tbaa !4
  %10 = getelementptr inbounds nuw %struct.AVCodecContext, ptr %9, i32 0, i32 4
  %11 = load i32, ptr %10, align 8, !tbaa !26
  %12 = icmp eq i32 %11, 9
  br i1 %12, label %13, label %45

13:                                               ; preds = %3
  %14 = load ptr, ptr %4, align 8, !tbaa !4
  %15 = getelementptr inbounds nuw %struct.AVCodecContext, ptr %14, i32 0, i32 23
  %16 = load i32, ptr %15, align 8, !tbaa !41
  %17 = icmp eq i32 %16, 121
  br i1 %17, label %28, label %18

18:                                               ; preds = %13
  %19 = load ptr, ptr %4, align 8, !tbaa !4
  %20 = getelementptr inbounds nuw %struct.AVCodecContext, ptr %19, i32 0, i32 23
  %21 = load i32, ptr %20, align 8, !tbaa !41
  %22 = icmp eq i32 %21, 28
  br i1 %22, label %28, label %23

23:                                               ; preds = %18
  %24 = load ptr, ptr %4, align 8, !tbaa !4
  %25 = getelementptr inbounds nuw %struct.AVCodecContext, ptr %24, i32 0, i32 23
  %26 = load i32, ptr %25, align 8, !tbaa !41
  %27 = icmp eq i32 %26, 3
  br i1 %27, label %28, label %45

28:                                               ; preds = %23, %18, %13
  %29 = load ptr, ptr %5, align 8, !tbaa !24
  %30 = getelementptr inbounds i32, ptr %29, i64 3
  store i32 1, ptr %30, align 4, !tbaa !22
  %31 = load ptr, ptr %6, align 8, !tbaa !24
  %32 = getelementptr inbounds i32, ptr %31, i64 3
  store i32 1, ptr %32, align 4, !tbaa !22
  %33 = load ptr, ptr %5, align 8, !tbaa !24
  %34 = getelementptr inbounds i32, ptr %33, i64 2
  store i32 1, ptr %34, align 4, !tbaa !22
  %35 = load ptr, ptr %6, align 8, !tbaa !24
  %36 = getelementptr inbounds i32, ptr %35, i64 2
  store i32 1, ptr %36, align 4, !tbaa !22
  %37 = load ptr, ptr %5, align 8, !tbaa !24
  %38 = getelementptr inbounds i32, ptr %37, i64 1
  store i32 1, ptr %38, align 4, !tbaa !22
  %39 = load ptr, ptr %6, align 8, !tbaa !24
  %40 = getelementptr inbounds i32, ptr %39, i64 1
  store i32 1, ptr %40, align 4, !tbaa !22
  %41 = load ptr, ptr %5, align 8, !tbaa !24
  %42 = getelementptr inbounds i32, ptr %41, i64 0
  store i32 1, ptr %42, align 4, !tbaa !22
  %43 = load ptr, ptr %6, align 8, !tbaa !24
  %44 = getelementptr inbounds i32, ptr %43, i64 0
  store i32 1, ptr %44, align 4, !tbaa !22
  br label %94

45:                                               ; preds = %23, %3
  %46 = load ptr, ptr %4, align 8, !tbaa !4
  %47 = getelementptr inbounds nuw %struct.AVCodecContext, ptr %46, i32 0, i32 23
  %48 = load i32, ptr %47, align 8, !tbaa !41
  %49 = icmp eq i32 %48, 5
  br i1 %49, label %55, label %50

50:                                               ; preds = %45
  %51 = load ptr, ptr %4, align 8, !tbaa !4
  %52 = getelementptr inbounds nuw %struct.AVCodecContext, ptr %51, i32 0, i32 23
  %53 = load i32, ptr %52, align 8, !tbaa !41
  %54 = icmp eq i32 %53, 14
  br i1 %54, label %55, label %68

55:                                               ; preds = %50, %45
  %56 = load ptr, ptr %6, align 8, !tbaa !24
  %57 = getelementptr inbounds i32, ptr %56, i64 2
  store i32 2, ptr %57, align 4, !tbaa !22
  %58 = load ptr, ptr %6, align 8, !tbaa !24
  %59 = getelementptr inbounds i32, ptr %58, i64 1
  store i32 2, ptr %59, align 4, !tbaa !22
  %60 = load ptr, ptr %6, align 8, !tbaa !24
  %61 = getelementptr inbounds i32, ptr %60, i64 0
  store i32 2, ptr %61, align 4, !tbaa !22
  %62 = load ptr, ptr %5, align 8, !tbaa !24
  %63 = getelementptr inbounds i32, ptr %62, i64 2
  store i32 1, ptr %63, align 4, !tbaa !22
  %64 = load ptr, ptr %5, align 8, !tbaa !24
  %65 = getelementptr inbounds i32, ptr %64, i64 1
  store i32 1, ptr %65, align 4, !tbaa !22
  %66 = load ptr, ptr %5, align 8, !tbaa !24
  %67 = getelementptr inbounds i32, ptr %66, i64 0
  store i32 1, ptr %67, align 4, !tbaa !22
  br label %93

68:                                               ; preds = %50
  call void @llvm.lifetime.start.p0(i64 4, ptr %7) #8
  call void @llvm.lifetime.start.p0(i64 4, ptr %8) #8
  %69 = load ptr, ptr %4, align 8, !tbaa !4
  %70 = getelementptr inbounds nuw %struct.AVCodecContext, ptr %69, i32 0, i32 23
  %71 = load i32, ptr %70, align 8, !tbaa !41
  %72 = call i32 @av_pix_fmt_get_chroma_sub_sample(i32 noundef %71, ptr noundef %7, ptr noundef %8)
  %73 = load ptr, ptr %6, align 8, !tbaa !24
  %74 = getelementptr inbounds i32, ptr %73, i64 0
  store i32 2, ptr %74, align 4, !tbaa !22
  %75 = load i32, ptr %8, align 4, !tbaa !22
  %76 = ashr i32 2, %75
  %77 = load ptr, ptr %6, align 8, !tbaa !24
  %78 = getelementptr inbounds i32, ptr %77, i64 1
  store i32 %76, ptr %78, align 4, !tbaa !22
  %79 = load i32, ptr %8, align 4, !tbaa !22
  %80 = ashr i32 2, %79
  %81 = load ptr, ptr %6, align 8, !tbaa !24
  %82 = getelementptr inbounds i32, ptr %81, i64 2
  store i32 %80, ptr %82, align 4, !tbaa !22
  %83 = load ptr, ptr %5, align 8, !tbaa !24
  %84 = getelementptr inbounds i32, ptr %83, i64 0
  store i32 2, ptr %84, align 4, !tbaa !22
  %85 = load i32, ptr %7, align 4, !tbaa !22
  %86 = ashr i32 2, %85
  %87 = load ptr, ptr %5, align 8, !tbaa !24
  %88 = getelementptr inbounds i32, ptr %87, i64 1
  store i32 %86, ptr %88, align 4, !tbaa !22
  %89 = load i32, ptr %7, align 4, !tbaa !22
  %90 = ashr i32 2, %89
  %91 = load ptr, ptr %5, align 8, !tbaa !24
  %92 = getelementptr inbounds i32, ptr %91, i64 2
  store i32 %90, ptr %92, align 4, !tbaa !22
  call void @llvm.lifetime.end.p0(i64 4, ptr %8) #8
  call void @llvm.lifetime.end.p0(i64 4, ptr %7) #8
  br label %93

93:                                               ; preds = %68, %55
  br label %94

94:                                               ; preds = %93, %28
  ret void
}