; Function Attrs: nounwind uwtable
define void @ff_mjpeg_init_hvsample(ptr noundef readonly captures(none) %0, ptr noundef writeonly captures(none) initializes((0, 12)) %1, ptr noundef writeonly captures(none) initializes((0, 12)) %2) local_unnamed_addr #0 {
  %4 = alloca i32, align 4
  %5 = alloca i32, align 4
  %6 = getelementptr inbounds nuw i8, ptr %0, i64 24
  %7 = load i32, ptr %6, align 8, !tbaa !15
  %8 = icmp eq i32 %7, 9
  %9 = getelementptr inbounds nuw i8, ptr %0, i64 136
  %10 = load i32, ptr %9, align 8, !tbaa !31
  br i1 %8, label %11, label %._crit_edge

11:                                               ; preds = %3
  switch i32 %10, label %24 [
    i32 121, label %12
    i32 28, label %12
    i32 3, label %12
    i32 5, label %19
    i32 14, label %19
  ]

12:                                               ; preds = %11, %11, %11
  %13 = getelementptr inbounds nuw i8, ptr %1, i64 12
  store i32 1, ptr %13, align 4, !tbaa !32
  %14 = getelementptr inbounds nuw i8, ptr %2, i64 12
  store i32 1, ptr %14, align 4, !tbaa !32
  %15 = getelementptr inbounds nuw i8, ptr %1, i64 8
  store i32 1, ptr %15, align 4, !tbaa !32
  %16 = getelementptr inbounds nuw i8, ptr %2, i64 8
  store i32 1, ptr %16, align 4, !tbaa !32
  %17 = getelementptr inbounds nuw i8, ptr %1, i64 4
  store i32 1, ptr %17, align 4, !tbaa !32
  %18 = getelementptr inbounds nuw i8, ptr %2, i64 4
  store i32 1, ptr %18, align 4, !tbaa !32
  store i32 1, ptr %1, align 4, !tbaa !32
  store i32 1, ptr %2, align 4, !tbaa !32
  br label %34

._crit_edge:                                      ; preds = %3
  switch i32 %10, label %24 [
    i32 5, label %19
    i32 14, label %19
  ]

19:                                               ; preds = %11, %11, %._crit_edge, %._crit_edge
  %20 = getelementptr inbounds nuw i8, ptr %2, i64 8
  store i32 2, ptr %20, align 4, !tbaa !32
  %21 = getelementptr inbounds nuw i8, ptr %2, i64 4
  store i32 2, ptr %21, align 4, !tbaa !32
  store i32 2, ptr %2, align 4, !tbaa !32
  %22 = getelementptr inbounds nuw i8, ptr %1, i64 8
  store i32 1, ptr %22, align 4, !tbaa !32
  %23 = getelementptr inbounds nuw i8, ptr %1, i64 4
  store i32 1, ptr %23, align 4, !tbaa !32
  store i32 1, ptr %1, align 4, !tbaa !32
  br label %34

24:                                               ; preds = %11, %._crit_edge
  call void @llvm.lifetime.start.p0(i64 4, ptr nonnull %4) #8
  call void @llvm.lifetime.start.p0(i64 4, ptr nonnull %5) #8
  %25 = call i32 @av_pix_fmt_get_chroma_sub_sample(i32 noundef %10, ptr noundef nonnull %4, ptr noundef nonnull %5) #8
  store i32 2, ptr %2, align 4, !tbaa !32
  %26 = load i32, ptr %5, align 4, !tbaa !32
  %27 = lshr i32 2, %26
  %28 = getelementptr inbounds nuw i8, ptr %2, i64 4
  store i32 %27, ptr %28, align 4, !tbaa !32
  %29 = getelementptr inbounds nuw i8, ptr %2, i64 8
  store i32 %27, ptr %29, align 4, !tbaa !32
  store i32 2, ptr %1, align 4, !tbaa !32
  %30 = load i32, ptr %4, align 4, !tbaa !32
  %31 = lshr i32 2, %30
  %32 = getelementptr inbounds nuw i8, ptr %1, i64 4
  store i32 %31, ptr %32, align 4, !tbaa !32
  %33 = getelementptr inbounds nuw i8, ptr %1, i64 8
  store i32 %31, ptr %33, align 4, !tbaa !32
  call void @llvm.lifetime.end.p0(i64 4, ptr nonnull %5) #8
  call void @llvm.lifetime.end.p0(i64 4, ptr nonnull %4) #8
  br label %34

34:                                               ; preds = %19, %24, %12
  ret void
}